target datalayout = "e-m:e-p270:32:32-p271:32:32-p272:64:64-i64:64-i128:128-f80:128-n8:16:32:64-S128"
target triple = "x86_64-pc-linux-gnu"

%struct.ImVec2 = type { float, float }
%struct.ImGuiInputTextState = type <{ ptr, ptr, i32, i32, i32, [4 x i8], ptr, %struct.ImVector.34, %struct.ImVector.34, %struct.ImVector.34, i32, %struct.ImVec2, float, i8, i8, i8, i8, i32, i32, [4 x i8] }>
%struct.ImVector.34 = type { i32, i32, ptr }
%"struct.ImStb::STB_TexteditState" = type { i32, i32, i32, i8, i32, i8, i8, i8, i8, i8, i8, i8, float, %"struct.ImStb::StbUndoState" }
%"struct.ImStb::StbUndoState" = type { [99 x %"struct.ImStb::StbUndoRecord"], [999 x i8], i16, i16, i32, i32 }
%"struct.ImStb::StbUndoRecord" = type { i32, i32, i32, i32 }

; Function Attrs: mustprogress nounwind uwtable
define void @_ZN19ImGuiInputTextState9SelectAllEv(ptr noundef nonnull align 8 dereferenceable(116) %0) #4 align 2 {
  %2 = alloca ptr, align 8
  store ptr %0, ptr %2, align 8, !tbaa !429
  %3 = load ptr, ptr %2, align 8
  %4 = getelementptr inbounds nuw %struct.ImGuiInputTextState, ptr %3, i32 0, i32 1
  %5 = load ptr, ptr %4, align 8, !tbaa !434
  %6 = getelementptr inbounds nuw %"struct.ImStb::STB_TexteditState", ptr %5, i32 0, i32 1
  store i32 0, ptr %6, align 4, !tbaa !441
  %7 = getelementptr inbounds nuw %struct.ImGuiInputTextState, ptr %3, i32 0, i32 4
  %8 = load i32, ptr %7, align 8, !tbaa !439
  %9 = getelementptr inbounds nuw %struct.ImGuiInputTextState, ptr %3, i32 0, i32 1
  %10 = load ptr, ptr %9, align 8, !tbaa !434
  %11 = getelementptr inbounds nuw %"struct.ImStb::STB_TexteditState", ptr %10, i32 0, i32 2
  store i32 %8, ptr %11, align 4, !tbaa !443
  %12 = getelementptr inbounds nuw %struct.ImGuiInputTextState, ptr %3, i32 0, i32 1
  %13 = load ptr, ptr %12, align 8, !tbaa !434
  %14 = getelementptr inbounds nuw %"struct.ImStb::STB_TexteditState", ptr %13, i32 0, i32 0
  store i32 %8, ptr %14, align 4, !tbaa !444
  %15 = getelementptr inbounds nuw %struct.ImGuiInputTextState, ptr %3, i32 0, i32 1
  %16 = load ptr, ptr %15, align 8, !tbaa !434
  %17 = getelementptr inbounds nuw %"struct.ImStb::STB_TexteditState", ptr %16, i32 0, i32 7
  store i8 0, ptr %17, align 2, !tbaa !513
  ret void
}