; Function Attrs: mustprogress nofree norecurse nosync nounwind willreturn memory(write, argmem: readwrite, inaccessiblemem: none) uwtable
define void @_ZN19ImGuiInputTextState9SelectAllEv(ptr noundef nonnull readonly align 8 captures(none) dereferenceable(116) %0) local_unnamed_addr #27 align 2 {
  %2 = getelementptr inbounds nuw i8, ptr %0, i64 8
  %3 = load ptr, ptr %2, align 8, !tbaa !379
  %4 = getelementptr inbounds nuw i8, ptr %3, i64 4
  store i32 0, ptr %4, align 4, !tbaa !394
  %5 = getelementptr inbounds nuw i8, ptr %0, i64 24
  %6 = load i32, ptr %5, align 8, !tbaa !384
  %7 = getelementptr inbounds nuw i8, ptr %3, i64 8
  store i32 %6, ptr %7, align 4, !tbaa !395
  store i32 %6, ptr %3, align 4, !tbaa !393
  %8 = getelementptr inbounds nuw i8, ptr %3, i64 22
  store i8 0, ptr %8, align 2, !tbaa !404
  ret void
}